Certificate:
    Data:
        Version: 3 (0x2)
        Serial Number:
            7e:5b:e8:b3:9e:01:4d:21:62:84:cf:9b:cc:d1:51:01:bc:7e:bd:47
        Signature Algorithm: ecdsa-with-SHA256
        Issuer: O=trustme v1.2.0, OU=Testing CA #ZBWkQazP4ySx3fd9
        Validity
            Not Before: Jan  1 00:00:00 2000 GMT
            Not After : Jan  1 00:00:00 3000 GMT
        Subject: O=trustme v1.2.0, OU=Testing cert #a2hoPi7grXWfQTfO
        Subject Public Key Info:
            Public Key Algorithm: id-ecPublicKey
                Public-Key: (256 bit)
                pub:
                    04:b4:37:ff:1c:5e:e3:94:76:dc:de:49:f5:d6:f1:
                    be:14:77:75:00:02:56:6e:d4:d1:ec:b5:0c:13:e3:
                    00:f3:46:f7:53:2f:cc:07:1a:a5:5f:f7:22:9d:a5:
                    3f:29:d1:34:b4:13:77:0e:ff:53:73:e2:40:06:e6:
                    d5:68:4a:74:47
                ASN1 OID: prime256v1
                NIST CURVE: P-256
        X509v3 extensions:
            X509v3 Subject Key Identifier: 
                E5:41:AD:8C:9B:CD:46:B7:17:17:25:CC:F0:03:D8:88:48:6B:9A:C0
            X509v3 Basic Constraints: critical
                CA:FALSE
            X509v3 Authority Key Identifier: 
                8C:A5:86:50:63:1D:32:2F:C2:AD:75:8D:47:69:2A:21:A4:92:81:2E
            X509v3 Subject Alternative Name: critical
                DNS:localhost
            X509v3 Key Usage: critical
                Digital Signature, Key Encipherment
            X509v3 Extended Key Usage: critical
                TLS Web Client Authentication, TLS Web Server Authentication, Code Signing
    Signature Algorithm: ecdsa-with-SHA256
    Signature Value:
        30:44:02:20:4a:6f:8e:c3:a8:14:9a:40:d9:e3:07:11:34:67:
        39:e8:39:39:c7:58:5e:b9:3e:84:cd:3f:4b:64:ad:95:eb:1b:
        02:20:22:37:b1:cc:62:02:3b:64:11:9b:01:ad:31:7b:5d:3b:
        65:f4:a9:a0:e9:a7:0b:d0:1e:7d:5d:98:5c:a7:af:a1
-----BEGIN CERTIFICATE-----
MIICLDCCAdOgAwIBAgIUflvos54BTSFihM+bzNFRAbx+vUcwCgYIKoZIzj0EAwIw
QDEXMBUGA1UECgwOdHJ1c3RtZSB2MS4yLjAxJTAjBgNVBAsMHFRlc3RpbmcgQ0Eg
I1pCV2tRYXpQNHlTeDNmZDkwIBcNMDAwMTAxMDAwMDAwWhgPMzAwMDAxMDEwMDAw
MDBaMEIxFzAVBgNVBAoMDnRydXN0bWUgdjEuMi4wMScwJQYDVQQLDB5UZXN0aW5n
IGNlcnQgI2EyaG9QaTdnclhXZlFUZk8wWTATBgcqhkjOPQIBBggqhkjOPQMBBwNC
AAS0N/8cXuOUdtzeSfXW8b4Ud3UAAlZu1NHstQwT4wDzRvdTL8wHGqVf9yKdpT8p
0TS0E3cO/1Nz4kAG5tVoSnRHo4GmMIGjMB0GA1UdDgQWBBTlQa2Mm81GtxcXJczw
A9iISGuawDAMBgNVHRMBAf8EAjAAMB8GA1UdIwQYMBaAFIylhlBjHTIvwq11jUdp
KiGkkoEuMBcGA1UdEQEB/wQNMAuCCWxvY2FsaG9zdDAOBgNVHQ8BAf8EBAMCBaAw
KgYDVR0lAQH/BCAwHgYIKwYBBQUHAwIGCCsGAQUFBwMBBggrBgEFBQcDAzAKBggq
hkjOPQQDAgNHADBEAiBKb47DqBSaQNnjBxE0ZznoOTnHWF65PoTNP0tkrZXrGwIg
IjexzGICO2QRmwGtMXtdO2X0qaDppwvQHn1dmFynr6E=
-----END CERTIFICATE-----
