Certificate:
    Data:
        Version: 3 (0x2)
        Serial Number:
            2e:fd:f0:a9:0c:64:38:70:50:8d:15:a2:01:4a:7f:14:c0:02:ee:65
        Signature Algorithm: ecdsa-with-SHA256
        Issuer: O=Dask CA, OU=Testing CA #X1O8m-JKOTQK9qRl
        Validity
            Not Before: Jan  1 00:00:00 2000 GMT
            Not After : Jan  1 00:00:00 3000 GMT
        Subject: O=Dask CA, OU=Testing CA #X1O8m-JKOTQK9qRl
        Subject Public Key Info:
            Public Key Algorithm: id-ecPublicKey
                Public-Key: (256 bit)
                pub:
                    04:70:66:a3:f4:30:9a:7d:c1:b0:ef:27:60:23:bc:
                    90:93:0b:58:52:60:bc:c3:c7:e3:43:49:92:d1:a3:
                    61:31:a5:46:6b:ad:98:40:48:30:ee:35:16:41:93:
                    34:52:49:86:23:c0:37:39:8d:5c:09:e5:a4:5e:90:
                    4e:03:4b:8d:6d
                ASN1 OID: prime256v1
                NIST CURVE: P-256
        X509v3 extensions:
            X509v3 Subject Key Identifier: 
                32:C3:58:DD:84:BC:F8:80:23:79:8D:4D:29:1C:83:DC:81:F1:F7:4A
            X509v3 Basic Constraints: critical
                CA:TRUE, pathlen:9
            X509v3 Key Usage: critical
                Digital Signature, Certificate Sign, CRL Sign
    Signature Algorithm: ecdsa-with-SHA256
    Signature Value:
        30:46:02:21:00:ee:2b:8f:39:08:88:59:89:e7:aa:7f:05:34:
        7f:66:6b:f0:85:aa:37:44:33:6f:28:d7:1b:8b:b5:ce:b3:bd:
        18:02:21:00:cf:a6:b0:79:a3:4f:45:4f:4d:ed:b4:49:f8:e6:
        03:8d:f5:92:79:b9:00:14:a5:64:79:0e:bc:af:f8:f0:6c:35
-----BEGIN CERTIFICATE-----
MIIBvDCCAWGgAwIBAgIULv3wqQxkOHBQjRWiAUp/FMAC7mUwCgYIKoZIzj0EAwIw
OTEQMA4GA1UECgwHRGFzayBDQTElMCMGA1UECwwcVGVzdGluZyBDQSAjWDFPOG0t
SktPVFFLOXFSbDAgFw0wMDAxMDEwMDAwMDBaGA8zMDAwMDEwMTAwMDAwMFowOTEQ
MA4GA1UECgwHRGFzayBDQTElMCMGA1UECwwcVGVzdGluZyBDQSAjWDFPOG0tSktP
VFFLOXFSbDBZMBMGByqGSM49AgEGCCqGSM49AwEHA0IABHBmo/Qwmn3BsO8nYCO8
kJMLWFJgvMPH40NJktGjYTGlRmutmEBIMO41FkGTNFJJhiPANzmNXAnlpF6QTgNL
jW2jRTBDMB0GA1UdDgQWBBQyw1jdhLz4gCN5jU0pHIPcgfH3SjASBgNVHRMBAf8E
CDAGAQH/AgEJMA4GA1UdDwEB/wQEAwIBhjAKBggqhkjOPQQDAgNJADBGAiEA7iuP
OQiIWYnnqn8FNH9ma/CFqjdEM28o1xuLtc6zvRgCIQDPprB5o09FT03ttEn45gON
9ZJ5uQAUpWR5Dryv+PBsNQ==
-----END CERTIFICATE-----
